; Function Attrs: mustprogress uwtable
define internal void @_ZN8facebook3jsi20WithRuntimeDecoratorINS0_6detail8WithLockINS_6hermes17HermesRuntimeImplENS4_12_GLOBAL__N_111HermesMutexEEES5_NS0_17ThreadSafeRuntimeEE11getPropertyERKNS0_6ObjectERKNS0_10PropNameIDE(ptr noalias sret(%"class.facebook::jsi::Value") align 8 %agg.result, ptr nocapture noundef nonnull readonly align 8 dereferenceable(32) %this, ptr nocapture noundef nonnull readonly align 8 dereferenceable(8) %o, ptr nocapture noundef nonnull readonly align 8 dereferenceable(8) %name) unnamed_addr #0 align 2 personality ptr @__gxx_personality_v0 {
entry:
  %with_ = getelementptr inbounds i8, ptr %this, i64 24
  %0 = load ptr, ptr %with_, align 8
  %call1.i.i.i.i.i.i = tail call noundef i32 @pthread_mutex_lock(ptr noundef nonnull %0) #37
  %tobool.not.i.i.i.i = icmp eq i32 %call1.i.i.i.i.i.i, 0
  br i1 %tobool.not.i.i.i.i, label %_ZN8facebook3jsi20WithRuntimeDecoratorINS0_6detail8WithLockINS_6hermes17HermesRuntimeImplENS4_12_GLOBAL__N_111HermesMutexEEES5_NS0_17ThreadSafeRuntimeEE6AroundC2ERS8_.exit, label %if.then.i.i.i.i

if.then.i.i.i.i:                                  ; preds = %entry
  tail call void @_ZSt20__throw_system_errori(i32 noundef %call1.i.i.i.i.i.i) #39
  unreachable

_ZN8facebook3jsi20WithRuntimeDecoratorINS0_6detail8WithLockINS_6hermes17HermesRuntimeImplENS4_12_GLOBAL__N_111HermesMutexEEES5_NS0_17ThreadSafeRuntimeEE6AroundC2ERS8_.exit: ; preds = %entry
  %plain_.i = getelementptr inbounds i8, ptr %this, i64 16
  %1 = load ptr, ptr %plain_.i, align 8, !noalias !334
  invoke void @_ZN8facebook6hermes17HermesRuntimeImpl11getPropertyERKNS_3jsi6ObjectERKNS2_10PropNameIDE(ptr sret(%"class.facebook::jsi::Value") align 8 %agg.result, ptr noundef nonnull align 8 dereferenceable(184) %1, ptr noundef nonnull align 8 dereferenceable(8) %o, ptr noundef nonnull align 8 dereferenceable(8) %name)
          to label %invoke.cont unwind label %lpad

invoke.cont:                                      ; preds = %_ZN8facebook3jsi20WithRuntimeDecoratorINS0_6detail8WithLockINS_6hermes17HermesRuntimeImplENS4_12_GLOBAL__N_111HermesMutexEEES5_NS0_17ThreadSafeRuntimeEE6AroundC2ERS8_.exit
  %call1.i.i.i.i.i.i2 = tail call noundef i32 @pthread_mutex_unlock(ptr noundef nonnull %0) #37
  ret void

lpad:                                             ; preds = %_ZN8facebook3jsi20WithRuntimeDecoratorINS0_6detail8WithLockINS_6hermes17HermesRuntimeImplENS4_12_GLOBAL__N_111HermesMutexEEES5_NS0_17ThreadSafeRuntimeEE6AroundC2ERS8_.exit
  %2 = landingpad { ptr, i32 }
          cleanup
  %call1.i.i.i.i.i.i3 = tail call noundef i32 @pthread_mutex_unlock(ptr noundef nonnull %0) #37
  resume { ptr, i32 } %2
}